; Function Attrs: mustprogress noreturn uwtable
define dso_local void @_ZN5vcpkg6Checks22final_cleanup_and_exitEi(i32 noundef %0) local_unnamed_addr #1 {
  %2 = atomicrmw xchg ptr @_ZZN5vcpkg6Checks22final_cleanup_and_exitEiE12have_entered, i8 1 seq_cst, align 1
  %3 = trunc i8 %2 to i1
  br i1 %3, label %4, label %5

4:                                                ; preds = %1
  tail call void @abort() #21
  unreachable

5:                                                ; preds = %1
  tail call void @_ZN5vcpkg6Checks25on_final_cleanup_and_exitEv()
  %6 = tail call i32 @fflush(ptr noundef null)
  tail call void @exit(i32 noundef %0) #21
  unreachable
}